target datalayout = "e-m:e-p270:32:32-p271:32:32-p272:64:64-i64:64-i128:128-f80:128-n8:16:32:64-S128"
target triple = "x86_64-pc-linux-gnu"

%"class.Json::Value" = type { %"union.Json::Value::ValueHolder", %struct.anon, %"class.Json::Value::Comments", i64, i64 }
%"union.Json::Value::ValueHolder" = type { i64 }
%struct.anon = type { i16, [2 x i8] }
%"class.Json::Value::Comments" = type { %"class.std::unique_ptr" }
%"class.std::unique_ptr" = type { %"struct.std::__uniq_ptr_data" }
%"struct.std::__uniq_ptr_data" = type { %"class.std::__uniq_ptr_impl" }
%"class.std::__uniq_ptr_impl" = type { %"class.std::tuple" }
%"class.std::tuple" = type { %"struct.std::_Tuple_impl" }
%"struct.std::_Tuple_impl" = type { %"struct.std::_Head_base.1" }
%"struct.std::_Head_base.1" = type { ptr }

@.str.19 = private unnamed_addr constant [12 x i8] c"indentation\00", align 1
@.str.20 = private unnamed_addr constant [13 x i8] c"commentStyle\00", align 1
@.str.21 = private unnamed_addr constant [14 x i8] c"precisionType\00", align 1
@.str.22 = private unnamed_addr constant [24 x i8] c"enableYAMLCompatibility\00", align 1
@.str.23 = private unnamed_addr constant [21 x i8] c"dropNullPlaceholders\00", align 1
@.str.24 = private unnamed_addr constant [17 x i8] c"useSpecialFloats\00", align 1
@.str.25 = private unnamed_addr constant [9 x i8] c"emitUTF8\00", align 1
@.str.26 = private unnamed_addr constant [10 x i8] c"precision\00", align 1
@.str.27 = private unnamed_addr constant [4 x i8] c"All\00", align 1
@.str.30 = private unnamed_addr constant [12 x i8] c"significant\00", align 1
@.str.33 = private unnamed_addr constant [2 x i8] c"\09\00", align 1

; Function Attrs: mustprogress uwtable
define dso_local void @_ZN4Json19StreamWriterBuilder11setDefaultsEPNS_5ValueE(ptr noundef %0) #0 align 2 personality ptr @__gxx_personality_v0 {
  %2 = alloca ptr, align 8
  %3 = alloca %"class.Json::Value", align 8
  %4 = alloca ptr, align 8
  %5 = alloca i32, align 4
  %6 = alloca %"class.Json::Value", align 8
  %7 = alloca %"class.Json::Value", align 8
  %8 = alloca %"class.Json::Value", align 8
  %9 = alloca %"class.Json::Value", align 8
  %10 = alloca %"class.Json::Value", align 8
  %11 = alloca %"class.Json::Value", align 8
  %12 = alloca %"class.Json::Value", align 8
  store ptr %0, ptr %2, align 8
  call void @_ZN4Json5ValueC1EPKc(ptr noundef nonnull align 8 dereferenceable(40) %3, ptr noundef @.str.27)
  %13 = load ptr, ptr %2, align 8
  %14 = invoke noundef nonnull align 8 dereferenceable(40) ptr @_ZN4Json5ValueixEPKc(ptr noundef nonnull align 8 dereferenceable(40) %13, ptr noundef @.str.20)
          to label %15 unwind label %45

15:                                               ; preds = %1
  %16 = call noundef nonnull align 8 dereferenceable(40) ptr @_ZN4Json5ValueaSEOS0_(ptr noundef nonnull align 8 dereferenceable(40) %14, ptr noundef nonnull align 8 dereferenceable(40) %3) #9
  call void @_ZN4Json5ValueD1Ev(ptr noundef nonnull align 8 dereferenceable(40) %3) #9
  call void @_ZN4Json5ValueC1EPKc(ptr noundef nonnull align 8 dereferenceable(40) %6, ptr noundef @.str.33)
  %17 = load ptr, ptr %2, align 8
  %18 = invoke noundef nonnull align 8 dereferenceable(40) ptr @_ZN4Json5ValueixEPKc(ptr noundef nonnull align 8 dereferenceable(40) %17, ptr noundef @.str.19)
          to label %19 unwind label %49

19:                                               ; preds = %15
  %20 = call noundef nonnull align 8 dereferenceable(40) ptr @_ZN4Json5ValueaSEOS0_(ptr noundef nonnull align 8 dereferenceable(40) %18, ptr noundef nonnull align 8 dereferenceable(40) %6) #9
  call void @_ZN4Json5ValueD1Ev(ptr noundef nonnull align 8 dereferenceable(40) %6) #9
  call void @_ZN4Json5ValueC1Eb(ptr noundef nonnull align 8 dereferenceable(40) %7, i1 noundef zeroext false)
  %21 = load ptr, ptr %2, align 8
  %22 = invoke noundef nonnull align 8 dereferenceable(40) ptr @_ZN4Json5ValueixEPKc(ptr noundef nonnull align 8 dereferenceable(40) %21, ptr noundef @.str.22)
          to label %23 unwind label %53

23:                                               ; preds = %19
  %24 = call noundef nonnull align 8 dereferenceable(40) ptr @_ZN4Json5ValueaSEOS0_(ptr noundef nonnull align 8 dereferenceable(40) %22, ptr noundef nonnull align 8 dereferenceable(40) %7) #9
  call void @_ZN4Json5ValueD1Ev(ptr noundef nonnull align 8 dereferenceable(40) %7) #9
  call void @_ZN4Json5ValueC1Eb(ptr noundef nonnull align 8 dereferenceable(40) %8, i1 noundef zeroext false)
  %25 = load ptr, ptr %2, align 8
  %26 = invoke noundef nonnull align 8 dereferenceable(40) ptr @_ZN4Json5ValueixEPKc(ptr noundef nonnull align 8 dereferenceable(40) %25, ptr noundef @.str.23)
          to label %27 unwind label %57

27:                                               ; preds = %23
  %28 = call noundef nonnull align 8 dereferenceable(40) ptr @_ZN4Json5ValueaSEOS0_(ptr noundef nonnull align 8 dereferenceable(40) %26, ptr noundef nonnull align 8 dereferenceable(40) %8) #9
  call void @_ZN4Json5ValueD1Ev(ptr noundef nonnull align 8 dereferenceable(40) %8) #9
  call void @_ZN4Json5ValueC1Eb(ptr noundef nonnull align 8 dereferenceable(40) %9, i1 noundef zeroext false)
  %29 = load ptr, ptr %2, align 8
  %30 = invoke noundef nonnull align 8 dereferenceable(40) ptr @_ZN4Json5ValueixEPKc(ptr noundef nonnull align 8 dereferenceable(40) %29, ptr noundef @.str.24)
          to label %31 unwind label %61

31:                                               ; preds = %27
  %32 = call noundef nonnull align 8 dereferenceable(40) ptr @_ZN4Json5ValueaSEOS0_(ptr noundef nonnull align 8 dereferenceable(40) %30, ptr noundef nonnull align 8 dereferenceable(40) %9) #9
  call void @_ZN4Json5ValueD1Ev(ptr noundef nonnull align 8 dereferenceable(40) %9) #9
  call void @_ZN4Json5ValueC1Eb(ptr noundef nonnull align 8 dereferenceable(40) %10, i1 noundef zeroext false)
  %33 = load ptr, ptr %2, align 8
  %34 = invoke noundef nonnull align 8 dereferenceable(40) ptr @_ZN4Json5ValueixEPKc(ptr noundef nonnull align 8 dereferenceable(40) %33, ptr noundef @.str.25)
          to label %35 unwind label %65

35:                                               ; preds = %31
  %36 = call noundef nonnull align 8 dereferenceable(40) ptr @_ZN4Json5ValueaSEOS0_(ptr noundef nonnull align 8 dereferenceable(40) %34, ptr noundef nonnull align 8 dereferenceable(40) %10) #9
  call void @_ZN4Json5ValueD1Ev(ptr noundef nonnull align 8 dereferenceable(40) %10) #9
  call void @_ZN4Json5ValueC1Ei(ptr noundef nonnull align 8 dereferenceable(40) %11, i32 noundef 17)
  %37 = load ptr, ptr %2, align 8
  %38 = invoke noundef nonnull align 8 dereferenceable(40) ptr @_ZN4Json5ValueixEPKc(ptr noundef nonnull align 8 dereferenceable(40) %37, ptr noundef @.str.26)
          to label %39 unwind label %69

39:                                               ; preds = %35
  %40 = call noundef nonnull align 8 dereferenceable(40) ptr @_ZN4Json5ValueaSEOS0_(ptr noundef nonnull align 8 dereferenceable(40) %38, ptr noundef nonnull align 8 dereferenceable(40) %11) #9
  call void @_ZN4Json5ValueD1Ev(ptr noundef nonnull align 8 dereferenceable(40) %11) #9
  call void @_ZN4Json5ValueC1EPKc(ptr noundef nonnull align 8 dereferenceable(40) %12, ptr noundef @.str.30)
  %41 = load ptr, ptr %2, align 8
  %42 = invoke noundef nonnull align 8 dereferenceable(40) ptr @_ZN4Json5ValueixEPKc(ptr noundef nonnull align 8 dereferenceable(40) %41, ptr noundef @.str.21)
          to label %43 unwind label %73

43:                                               ; preds = %39
  %44 = call noundef nonnull align 8 dereferenceable(40) ptr @_ZN4Json5ValueaSEOS0_(ptr noundef nonnull align 8 dereferenceable(40) %42, ptr noundef nonnull align 8 dereferenceable(40) %12) #9
  call void @_ZN4Json5ValueD1Ev(ptr noundef nonnull align 8 dereferenceable(40) %12) #9
  ret void

45:                                               ; preds = %1
  %46 = landingpad { ptr, i32 }
          cleanup
  %47 = extractvalue { ptr, i32 } %46, 0
  store ptr %47, ptr %4, align 8
  %48 = extractvalue { ptr, i32 } %46, 1
  store i32 %48, ptr %5, align 4
  call void @_ZN4Json5ValueD1Ev(ptr noundef nonnull align 8 dereferenceable(40) %3) #9
  br label %77

49:                                               ; preds = %15
  %50 = landingpad { ptr, i32 }
          cleanup
  %51 = extractvalue { ptr, i32 } %50, 0
  store ptr %51, ptr %4, align 8
  %52 = extractvalue { ptr, i32 } %50, 1
  store i32 %52, ptr %5, align 4
  call void @_ZN4Json5ValueD1Ev(ptr noundef nonnull align 8 dereferenceable(40) %6) #9
  br label %77

53:                                               ; preds = %19
  %54 = landingpad { ptr, i32 }
          cleanup
  %55 = extractvalue { ptr, i32 } %54, 0
  store ptr %55, ptr %4, align 8
  %56 = extractvalue { ptr, i32 } %54, 1
  store i32 %56, ptr %5, align 4
  call void @_ZN4Json5ValueD1Ev(ptr noundef nonnull align 8 dereferenceable(40) %7) #9
  br label %77

57:                                               ; preds = %23
  %58 = landingpad { ptr, i32 }
          cleanup
  %59 = extractvalue { ptr, i32 } %58, 0
  store ptr %59, ptr %4, align 8
  %60 = extractvalue { ptr, i32 } %58, 1
  store i32 %60, ptr %5, align 4
  call void @_ZN4Json5ValueD1Ev(ptr noundef nonnull align 8 dereferenceable(40) %8) #9
  br label %77

61:                                               ; preds = %27
  %62 = landingpad { ptr, i32 }
          cleanup
  %63 = extractvalue { ptr, i32 } %62, 0
  store ptr %63, ptr %4, align 8
  %64 = extractvalue { ptr, i32 } %62, 1
  store i32 %64, ptr %5, align 4
  call void @_ZN4Json5ValueD1Ev(ptr noundef nonnull align 8 dereferenceable(40) %9) #9
  br label %77

65:                                               ; preds = %31
  %66 = landingpad { ptr, i32 }
          cleanup
  %67 = extractvalue { ptr, i32 } %66, 0
  store ptr %67, ptr %4, align 8
  %68 = extractvalue { ptr, i32 } %66, 1
  store i32 %68, ptr %5, align 4
  call void @_ZN4Json5ValueD1Ev(ptr noundef nonnull align 8 dereferenceable(40) %10) #9
  br label %77

69:                                               ; preds = %35
  %70 = landingpad { ptr, i32 }
          cleanup
  %71 = extractvalue { ptr, i32 } %70, 0
  store ptr %71, ptr %4, align 8
  %72 = extractvalue { ptr, i32 } %70, 1
  store i32 %72, ptr %5, align 4
  call void @_ZN4Json5ValueD1Ev(ptr noundef nonnull align 8 dereferenceable(40) %11) #9
  br label %77

73:                                               ; preds = %39
  %74 = landingpad { ptr, i32 }
          cleanup
  %75 = extractvalue { ptr, i32 } %74, 0
  store ptr %75, ptr %4, align 8
  %76 = extractvalue { ptr, i32 } %74, 1
  store i32 %76, ptr %5, align 4
  call void @_ZN4Json5ValueD1Ev(ptr noundef nonnull align 8 dereferenceable(40) %12) #9
  br label %77

77:                                               ; preds = %73, %69, %65, %61, %57, %53, %49, %45
  %78 = load ptr, ptr %4, align 8
  %79 = load i32, ptr %5, align 4
  %80 = insertvalue { ptr, i32 } poison, ptr %78, 0
  %81 = insertvalue { ptr, i32 } %80, i32 %79, 1
  resume { ptr, i32 } %81
}