; Function Attrs: mustprogress uwtable
define dso_local void @_ZN4Json19StreamWriterBuilder11setDefaultsEPNS_5ValueE(ptr noundef %0) local_unnamed_addr #0 align 2 personality ptr @__gxx_personality_v0 {
  %2 = alloca %"class.Json::Value", align 8
  %3 = alloca %"class.Json::Value", align 8
  %4 = alloca %"class.Json::Value", align 8
  %5 = alloca %"class.Json::Value", align 8
  %6 = alloca %"class.Json::Value", align 8
  %7 = alloca %"class.Json::Value", align 8
  %8 = alloca %"class.Json::Value", align 8
  %9 = alloca %"class.Json::Value", align 8
  call void @_ZN4Json5ValueC1EPKc(ptr noundef nonnull align 8 dereferenceable(40) %2, ptr noundef nonnull @.str.27)
  %10 = invoke noundef nonnull align 8 dereferenceable(40) ptr @_ZN4Json5ValueixEPKc(ptr noundef nonnull align 8 dereferenceable(40) %0, ptr noundef nonnull @.str.20)
          to label %11 unwind label %34

11:                                               ; preds = %1
  %12 = call noundef nonnull align 8 dereferenceable(40) ptr @_ZN4Json5ValueaSEOS0_(ptr noundef nonnull align 8 dereferenceable(40) %10, ptr noundef nonnull align 8 dereferenceable(40) %2) #19
  call void @_ZN4Json5ValueD1Ev(ptr noundef nonnull align 8 dereferenceable(40) %2) #19
  call void @_ZN4Json5ValueC1EPKc(ptr noundef nonnull align 8 dereferenceable(40) %3, ptr noundef nonnull @.str.33)
  %13 = invoke noundef nonnull align 8 dereferenceable(40) ptr @_ZN4Json5ValueixEPKc(ptr noundef nonnull align 8 dereferenceable(40) %0, ptr noundef nonnull @.str.19)
          to label %14 unwind label %36

14:                                               ; preds = %11
  %15 = call noundef nonnull align 8 dereferenceable(40) ptr @_ZN4Json5ValueaSEOS0_(ptr noundef nonnull align 8 dereferenceable(40) %13, ptr noundef nonnull align 8 dereferenceable(40) %3) #19
  call void @_ZN4Json5ValueD1Ev(ptr noundef nonnull align 8 dereferenceable(40) %3) #19
  call void @_ZN4Json5ValueC1Eb(ptr noundef nonnull align 8 dereferenceable(40) %4, i1 noundef zeroext false)
  %16 = invoke noundef nonnull align 8 dereferenceable(40) ptr @_ZN4Json5ValueixEPKc(ptr noundef nonnull align 8 dereferenceable(40) %0, ptr noundef nonnull @.str.22)
          to label %17 unwind label %38

17:                                               ; preds = %14
  %18 = call noundef nonnull align 8 dereferenceable(40) ptr @_ZN4Json5ValueaSEOS0_(ptr noundef nonnull align 8 dereferenceable(40) %16, ptr noundef nonnull align 8 dereferenceable(40) %4) #19
  call void @_ZN4Json5ValueD1Ev(ptr noundef nonnull align 8 dereferenceable(40) %4) #19
  call void @_ZN4Json5ValueC1Eb(ptr noundef nonnull align 8 dereferenceable(40) %5, i1 noundef zeroext false)
  %19 = invoke noundef nonnull align 8 dereferenceable(40) ptr @_ZN4Json5ValueixEPKc(ptr noundef nonnull align 8 dereferenceable(40) %0, ptr noundef nonnull @.str.23)
          to label %20 unwind label %40

20:                                               ; preds = %17
  %21 = call noundef nonnull align 8 dereferenceable(40) ptr @_ZN4Json5ValueaSEOS0_(ptr noundef nonnull align 8 dereferenceable(40) %19, ptr noundef nonnull align 8 dereferenceable(40) %5) #19
  call void @_ZN4Json5ValueD1Ev(ptr noundef nonnull align 8 dereferenceable(40) %5) #19
  call void @_ZN4Json5ValueC1Eb(ptr noundef nonnull align 8 dereferenceable(40) %6, i1 noundef zeroext false)
  %22 = invoke noundef nonnull align 8 dereferenceable(40) ptr @_ZN4Json5ValueixEPKc(ptr noundef nonnull align 8 dereferenceable(40) %0, ptr noundef nonnull @.str.24)
          to label %23 unwind label %42

23:                                               ; preds = %20
  %24 = call noundef nonnull align 8 dereferenceable(40) ptr @_ZN4Json5ValueaSEOS0_(ptr noundef nonnull align 8 dereferenceable(40) %22, ptr noundef nonnull align 8 dereferenceable(40) %6) #19
  call void @_ZN4Json5ValueD1Ev(ptr noundef nonnull align 8 dereferenceable(40) %6) #19
  call void @_ZN4Json5ValueC1Eb(ptr noundef nonnull align 8 dereferenceable(40) %7, i1 noundef zeroext false)
  %25 = invoke noundef nonnull align 8 dereferenceable(40) ptr @_ZN4Json5ValueixEPKc(ptr noundef nonnull align 8 dereferenceable(40) %0, ptr noundef nonnull @.str.25)
          to label %26 unwind label %44

26:                                               ; preds = %23
  %27 = call noundef nonnull align 8 dereferenceable(40) ptr @_ZN4Json5ValueaSEOS0_(ptr noundef nonnull align 8 dereferenceable(40) %25, ptr noundef nonnull align 8 dereferenceable(40) %7) #19
  call void @_ZN4Json5ValueD1Ev(ptr noundef nonnull align 8 dereferenceable(40) %7) #19
  call void @_ZN4Json5ValueC1Ei(ptr noundef nonnull align 8 dereferenceable(40) %8, i32 noundef 17)
  %28 = invoke noundef nonnull align 8 dereferenceable(40) ptr @_ZN4Json5ValueixEPKc(ptr noundef nonnull align 8 dereferenceable(40) %0, ptr noundef nonnull @.str.26)
          to label %29 unwind label %46

29:                                               ; preds = %26
  %30 = call noundef nonnull align 8 dereferenceable(40) ptr @_ZN4Json5ValueaSEOS0_(ptr noundef nonnull align 8 dereferenceable(40) %28, ptr noundef nonnull align 8 dereferenceable(40) %8) #19
  call void @_ZN4Json5ValueD1Ev(ptr noundef nonnull align 8 dereferenceable(40) %8) #19
  call void @_ZN4Json5ValueC1EPKc(ptr noundef nonnull align 8 dereferenceable(40) %9, ptr noundef nonnull @.str.30)
  %31 = invoke noundef nonnull align 8 dereferenceable(40) ptr @_ZN4Json5ValueixEPKc(ptr noundef nonnull align 8 dereferenceable(40) %0, ptr noundef nonnull @.str.21)
          to label %32 unwind label %48

32:                                               ; preds = %29
  %33 = call noundef nonnull align 8 dereferenceable(40) ptr @_ZN4Json5ValueaSEOS0_(ptr noundef nonnull align 8 dereferenceable(40) %31, ptr noundef nonnull align 8 dereferenceable(40) %9) #19
  call void @_ZN4Json5ValueD1Ev(ptr noundef nonnull align 8 dereferenceable(40) %9) #19
  ret void

34:                                               ; preds = %1
  %35 = landingpad { ptr, i32 }
          cleanup
  br label %50

36:                                               ; preds = %11
  %37 = landingpad { ptr, i32 }
          cleanup
  br label %50

38:                                               ; preds = %14
  %39 = landingpad { ptr, i32 }
          cleanup
  br label %50

40:                                               ; preds = %17
  %41 = landingpad { ptr, i32 }
          cleanup
  br label %50

42:                                               ; preds = %20
  %43 = landingpad { ptr, i32 }
          cleanup
  br label %50

44:                                               ; preds = %23
  %45 = landingpad { ptr, i32 }
          cleanup
  br label %50

46:                                               ; preds = %26
  %47 = landingpad { ptr, i32 }
          cleanup
  br label %50

48:                                               ; preds = %29
  %49 = landingpad { ptr, i32 }
          cleanup
  br label %50

50:                                               ; preds = %48, %46, %44, %42, %40, %38, %36, %34
  %.sink = phi ptr [ %9, %48 ], [ %8, %46 ], [ %7, %44 ], [ %6, %42 ], [ %5, %40 ], [ %4, %38 ], [ %3, %36 ], [ %2, %34 ]
  %.pn = phi { ptr, i32 } [ %49, %48 ], [ %47, %46 ], [ %45, %44 ], [ %43, %42 ], [ %41, %40 ], [ %39, %38 ], [ %37, %36 ], [ %35, %34 ]
  call void @_ZN4Json5ValueD1Ev(ptr noundef nonnull align 8 dereferenceable(40) %.sink) #19
  resume { ptr, i32 } %.pn
}